target datalayout = "e-m:e-p270:32:32-p271:32:32-p272:64:64-i64:64-i128:128-f80:128-n8:16:32:64-S128"
target triple = "x86_64-pc-linux-gnu"

%struct.Aig_Obj_t_ = type { %union.anon, ptr, ptr, i64, i32, i32, %union.anon.0 }
%union.anon = type { ptr }
%union.anon.0 = type { ptr }
%struct.Aig_Man_t_ = type { ptr, ptr, ptr, ptr, ptr, ptr, ptr, %struct.Aig_Obj_t_, i32, i32, i32, i32, i32, i32, [7 x i32], i32, ptr, i32, ptr, i32, ptr, i32, i32, i32, ptr, i32, i32, i32, i32, i32, ptr, ptr, i32, ptr, ptr, i32, ptr, ptr, i32, i32, i32, ptr, ptr, ptr, ptr, ptr, ptr, ptr, ptr, ptr, ptr, ptr, ptr, ptr, ptr, i32, ptr, ptr, ptr, ptr, i32, i64, i64, i64, ptr, ptr }
%struct.Vec_Int_t_ = type { i32, i32, ptr }
%struct.Vec_Ptr_t_ = type { i32, i32, ptr }
%struct.Fra_Man_t_ = type { ptr, ptr, ptr, i32, ptr, i32, ptr, ptr, ptr, i32, ptr, ptr, ptr, ptr, i32, ptr, i64, i64, ptr, ptr, i32, ptr, i32, i32, i32, i32, i32, i32, i32, i32, i32, i32, i32, i32, i32, i32, i32, i32, i32, i32, i32, i64, i64, i64, i64, i64, i64, i64, i64, i64, i64, i64 }

; Function Attrs: inlinehint nounwind uwtable
define internal ptr @Aig_NotCond(ptr noundef %0, i32 noundef %1) #2 {
  %3 = alloca ptr, align 8
  %4 = alloca i32, align 4
  store ptr %0, ptr %3, align 8, !tbaa !8
  store i32 %1, ptr %4, align 4, !tbaa !18
  %5 = load ptr, ptr %3, align 8, !tbaa !8
  %6 = ptrtoint ptr %5 to i64
  %7 = load i32, ptr %4, align 4, !tbaa !18
  %8 = sext i32 %7 to i64
  %9 = xor i64 %6, %8
  %10 = inttoptr i64 %9 to ptr
  ret ptr %10
}

; Function Attrs: inlinehint nounwind uwtable
define internal i32 @Fra_LitSign(i32 noundef %0) #2 {
  %2 = alloca i32, align 4
  store i32 %0, ptr %2, align 4, !tbaa !18
  %3 = load i32, ptr %2, align 4, !tbaa !18
  %4 = icmp slt i32 %3, 0
  %5 = zext i1 %4 to i32
  ret i32 %5
}

; Function Attrs: inlinehint nounwind uwtable
define internal ptr @Aig_ManCi(ptr noundef %0, i32 noundef %1) #2 {
  %3 = alloca ptr, align 8
  %4 = alloca i32, align 4
  store ptr %0, ptr %3, align 8, !tbaa !42
  store i32 %1, ptr %4, align 4, !tbaa !18
  %5 = load ptr, ptr %3, align 8, !tbaa !42
  %6 = getelementptr inbounds nuw %struct.Aig_Man_t_, ptr %5, i32 0, i32 2
  %7 = load ptr, ptr %6, align 8, !tbaa !31
  %8 = load i32, ptr %4, align 4, !tbaa !18
  %9 = call ptr @Vec_PtrEntry(ptr noundef %7, i32 noundef %8)
  ret ptr %9
}

; Function Attrs: inlinehint nounwind uwtable
define internal i32 @Fra_LitReg(i32 noundef %0) #2 {
  %2 = alloca i32, align 4
  store i32 %0, ptr %2, align 4, !tbaa !18
  %3 = load i32, ptr %2, align 4, !tbaa !18
  %4 = icmp sgt i32 %3, 0
  br i1 %4, label %5, label %8

5:                                                ; preds = %1
  %6 = load i32, ptr %2, align 4, !tbaa !18
  %7 = sub nsw i32 %6, 1
  br label %12

8:                                                ; preds = %1
  %9 = load i32, ptr %2, align 4, !tbaa !18
  %10 = sub nsw i32 0, %9
  %11 = sub nsw i32 %10, 1
  br label %12

12:                                               ; preds = %8, %5
  %13 = phi i32 [ %7, %5 ], [ %11, %8 ]
  ret i32 %13
}

; Function Attrs: inlinehint nounwind uwtable
define internal i32 @Vec_IntEntry(ptr noundef %0, i32 noundef %1) #2 {
  %3 = alloca ptr, align 8
  %4 = alloca i32, align 4
  store ptr %0, ptr %3, align 8, !tbaa !29
  store i32 %1, ptr %4, align 4, !tbaa !18
  %5 = load ptr, ptr %3, align 8, !tbaa !29
  %6 = getelementptr inbounds nuw %struct.Vec_Int_t_, ptr %5, i32 0, i32 2
  %7 = load ptr, ptr %6, align 8, !tbaa !47
  %8 = load i32, ptr %4, align 4, !tbaa !18
  %9 = sext i32 %8 to i64
  %10 = getelementptr inbounds i32, ptr %7, i64 %9
  %11 = load i32, ptr %10, align 4, !tbaa !18
  ret i32 %11
}

; Function Attrs: inlinehint nounwind uwtable
define internal i32 @Aig_ManRegNum(ptr noundef %0) #2 {
  %2 = alloca ptr, align 8
  store ptr %0, ptr %2, align 8, !tbaa !42
  %3 = load ptr, ptr %2, align 8, !tbaa !42
  %4 = getelementptr inbounds nuw %struct.Aig_Man_t_, ptr %3, i32 0, i32 8
  %5 = load i32, ptr %4, align 8, !tbaa !43
  ret i32 %5
}

; Function Attrs: inlinehint nounwind uwtable
define internal i32 @Aig_ManCiNum(ptr noundef %0) #2 {
  %2 = alloca ptr, align 8
  store ptr %0, ptr %2, align 8, !tbaa !42
  %3 = load ptr, ptr %2, align 8, !tbaa !42
  %4 = getelementptr inbounds nuw %struct.Aig_Man_t_, ptr %3, i32 0, i32 14
  %5 = getelementptr inbounds [7 x i32], ptr %4, i64 0, i64 2
  %6 = load i32, ptr %5, align 8, !tbaa !18
  ret i32 %6
}

; Function Attrs: inlinehint nounwind uwtable
define internal ptr @Vec_PtrEntry(ptr noundef %0, i32 noundef %1) #2 {
  %3 = alloca ptr, align 8
  %4 = alloca i32, align 4
  store ptr %0, ptr %3, align 8, !tbaa !48
  store i32 %1, ptr %4, align 4, !tbaa !18
  %5 = load ptr, ptr %3, align 8, !tbaa !48
  %6 = getelementptr inbounds nuw %struct.Vec_Ptr_t_, ptr %5, i32 0, i32 2
  %7 = load ptr, ptr %6, align 8, !tbaa !51
  %8 = load i32, ptr %4, align 4, !tbaa !18
  %9 = sext i32 %8 to i64
  %10 = getelementptr inbounds ptr, ptr %7, i64 %9
  %11 = load ptr, ptr %10, align 8, !tbaa !52
  ret ptr %11
}

; Function Attrs: inlinehint nounwind uwtable
define internal i32 @Vec_PtrSize(ptr noundef %0) #2 {
  %2 = alloca ptr, align 8
  store ptr %0, ptr %2, align 8, !tbaa !48
  %3 = load ptr, ptr %2, align 8, !tbaa !48
  %4 = getelementptr inbounds nuw %struct.Vec_Ptr_t_, ptr %3, i32 0, i32 1
  %5 = load i32, ptr %4, align 4, !tbaa !49
  ret i32 %5
}

; Function Attrs: inlinehint nounwind uwtable
define internal i32 @Vec_IntSize(ptr noundef %0) #2 {
  %2 = alloca ptr, align 8
  store ptr %0, ptr %2, align 8, !tbaa !29
  %3 = load ptr, ptr %2, align 8, !tbaa !29
  %4 = getelementptr inbounds nuw %struct.Vec_Int_t_, ptr %3, i32 0, i32 1
  %5 = load i32, ptr %4, align 4, !tbaa !44
  ret i32 %5
}

; Function Attrs: nounwind uwtable
define ptr @Fra_OneHotCreateExdc(ptr noundef %0, ptr noundef %1) #0 {
  %3 = alloca ptr, align 8
  %4 = alloca ptr, align 8
  %5 = alloca ptr, align 8
  %6 = alloca ptr, align 8
  %7 = alloca ptr, align 8
  %8 = alloca ptr, align 8
  %9 = alloca i32, align 4
  %10 = alloca i32, align 4
  %11 = alloca i32, align 4
  %12 = alloca i32, align 4
  store ptr %0, ptr %3, align 8, !tbaa !26
  store ptr %1, ptr %4, align 8, !tbaa !29
  call void @llvm.lifetime.start.p0(i64 8, ptr %5) #10
  call void @llvm.lifetime.start.p0(i64 8, ptr %6) #10
  call void @llvm.lifetime.start.p0(i64 8, ptr %7) #10
  call void @llvm.lifetime.start.p0(i64 8, ptr %8) #10
  call void @llvm.lifetime.start.p0(i64 4, ptr %9) #10
  call void @llvm.lifetime.start.p0(i64 4, ptr %10) #10
  call void @llvm.lifetime.start.p0(i64 4, ptr %11) #10
  call void @llvm.lifetime.start.p0(i64 4, ptr %12) #10
  %13 = load ptr, ptr %4, align 8, !tbaa !29
  %14 = call i32 @Vec_IntSize(ptr noundef %13)
  %15 = sdiv i32 %14, 2
  %16 = call ptr @Aig_ManStart(i32 noundef %15)
  store ptr %16, ptr %5, align 8, !tbaa !42
  store i32 0, ptr %9, align 4, !tbaa !18
  br label %17

17:                                               ; preds = %39, %2
  %18 = load i32, ptr %9, align 4, !tbaa !18
  %19 = load ptr, ptr %3, align 8, !tbaa !26
  %20 = getelementptr inbounds nuw %struct.Fra_Man_t_, ptr %19, i32 0, i32 1
  %21 = load ptr, ptr %20, align 8, !tbaa !69
  %22 = getelementptr inbounds nuw %struct.Aig_Man_t_, ptr %21, i32 0, i32 2
  %23 = load ptr, ptr %22, align 8, !tbaa !31
  %24 = call i32 @Vec_PtrSize(ptr noundef %23)
  %25 = icmp slt i32 %18, %24
  br i1 %25, label %26, label %34

26:                                               ; preds = %17
  %27 = load ptr, ptr %3, align 8, !tbaa !26
  %28 = getelementptr inbounds nuw %struct.Fra_Man_t_, ptr %27, i32 0, i32 1
  %29 = load ptr, ptr %28, align 8, !tbaa !69
  %30 = getelementptr inbounds nuw %struct.Aig_Man_t_, ptr %29, i32 0, i32 2
  %31 = load ptr, ptr %30, align 8, !tbaa !31
  %32 = load i32, ptr %9, align 4, !tbaa !18
  %33 = call ptr @Vec_PtrEntry(ptr noundef %31, i32 noundef %32)
  store ptr %33, ptr %8, align 8, !tbaa !8
  br label %34

34:                                               ; preds = %26, %17
  %35 = phi i1 [ false, %17 ], [ true, %26 ]
  br i1 %35, label %36, label %42

36:                                               ; preds = %34
  %37 = load ptr, ptr %5, align 8, !tbaa !42
  %38 = call ptr @Aig_ObjCreateCi(ptr noundef %37)
  br label %39

39:                                               ; preds = %36
  %40 = load i32, ptr %9, align 4, !tbaa !18
  %41 = add nsw i32 %40, 1
  store i32 %41, ptr %9, align 4, !tbaa !18
  br label %17, !llvm.loop !85

42:                                               ; preds = %34
  %43 = load ptr, ptr %3, align 8, !tbaa !26
  %44 = getelementptr inbounds nuw %struct.Fra_Man_t_, ptr %43, i32 0, i32 1
  %45 = load ptr, ptr %44, align 8, !tbaa !69
  %46 = call i32 @Aig_ManCiNum(ptr noundef %45)
  %47 = load ptr, ptr %3, align 8, !tbaa !26
  %48 = getelementptr inbounds nuw %struct.Fra_Man_t_, ptr %47, i32 0, i32 1
  %49 = load ptr, ptr %48, align 8, !tbaa !69
  %50 = call i32 @Aig_ManRegNum(ptr noundef %49)
  %51 = sub nsw i32 %46, %50
  store i32 %51, ptr %12, align 4, !tbaa !18
  store i32 0, ptr %9, align 4, !tbaa !18
  br label %52

52:                                               ; preds = %99, %42
  %53 = load i32, ptr %9, align 4, !tbaa !18
  %54 = load ptr, ptr %4, align 8, !tbaa !29
  %55 = call i32 @Vec_IntSize(ptr noundef %54)
  %56 = icmp slt i32 %53, %55
  br i1 %56, label %57, label %102

57:                                               ; preds = %52
  %58 = load ptr, ptr %4, align 8, !tbaa !29
  %59 = load i32, ptr %9, align 4, !tbaa !18
  %60 = call i32 @Vec_IntEntry(ptr noundef %58, i32 noundef %59)
  store i32 %60, ptr %10, align 4, !tbaa !18
  %61 = load ptr, ptr %4, align 8, !tbaa !29
  %62 = load i32, ptr %9, align 4, !tbaa !18
  %63 = add nsw i32 %62, 1
  %64 = call i32 @Vec_IntEntry(ptr noundef %61, i32 noundef %63)
  store i32 %64, ptr %11, align 4, !tbaa !18
  %65 = load i32, ptr %10, align 4, !tbaa !18
  %66 = icmp eq i32 %65, 0
  br i1 %66, label %67, label %71

67:                                               ; preds = %57
  %68 = load i32, ptr %11, align 4, !tbaa !18
  %69 = icmp eq i32 %68, 0
  br i1 %69, label %70, label %71

70:                                               ; preds = %67
  br label %99

71:                                               ; preds = %67, %57
  %72 = load ptr, ptr %5, align 8, !tbaa !42
  %73 = load i32, ptr %12, align 4, !tbaa !18
  %74 = load i32, ptr %10, align 4, !tbaa !18
  %75 = call i32 @Fra_LitReg(i32 noundef %74)
  %76 = add nsw i32 %73, %75
  %77 = call ptr @Aig_ManCi(ptr noundef %72, i32 noundef %76)
  store ptr %77, ptr %6, align 8, !tbaa !8
  %78 = load ptr, ptr %5, align 8, !tbaa !42
  %79 = load i32, ptr %12, align 4, !tbaa !18
  %80 = load i32, ptr %11, align 4, !tbaa !18
  %81 = call i32 @Fra_LitReg(i32 noundef %80)
  %82 = add nsw i32 %79, %81
  %83 = call ptr @Aig_ManCi(ptr noundef %78, i32 noundef %82)
  store ptr %83, ptr %7, align 8, !tbaa !8
  %84 = load ptr, ptr %6, align 8, !tbaa !8
  %85 = load i32, ptr %10, align 4, !tbaa !18
  %86 = call i32 @Fra_LitSign(i32 noundef %85)
  %87 = call ptr @Aig_NotCond(ptr noundef %84, i32 noundef %86)
  store ptr %87, ptr %6, align 8, !tbaa !8
  %88 = load ptr, ptr %7, align 8, !tbaa !8
  %89 = load i32, ptr %11, align 4, !tbaa !18
  %90 = call i32 @Fra_LitSign(i32 noundef %89)
  %91 = call ptr @Aig_NotCond(ptr noundef %88, i32 noundef %90)
  store ptr %91, ptr %7, align 8, !tbaa !8
  %92 = load ptr, ptr %5, align 8, !tbaa !42
  %93 = load ptr, ptr %6, align 8, !tbaa !8
  %94 = load ptr, ptr %7, align 8, !tbaa !8
  %95 = call ptr @Aig_Or(ptr noundef %92, ptr noundef %93, ptr noundef %94)
  store ptr %95, ptr %8, align 8, !tbaa !8
  %96 = load ptr, ptr %5, align 8, !tbaa !42
  %97 = load ptr, ptr %8, align 8, !tbaa !8
  %98 = call ptr @Aig_ObjCreateCo(ptr noundef %96, ptr noundef %97)
  br label %99

99:                                               ; preds = %71, %70
  %100 = load i32, ptr %9, align 4, !tbaa !18
  %101 = add nsw i32 %100, 2
  store i32 %101, ptr %9, align 4, !tbaa !18
  br label %52, !llvm.loop !86

102:                                              ; preds = %52
  %103 = load ptr, ptr %5, align 8, !tbaa !42
  %104 = call i32 @Aig_ManCleanup(ptr noundef %103)
  %105 = load ptr, ptr %5, align 8, !tbaa !42
  call void @llvm.lifetime.end.p0(i64 4, ptr %12) #10
  call void @llvm.lifetime.end.p0(i64 4, ptr %11) #10
  call void @llvm.lifetime.end.p0(i64 4, ptr %10) #10
  call void @llvm.lifetime.end.p0(i64 4, ptr %9) #10
  call void @llvm.lifetime.end.p0(i64 8, ptr %8) #10
  call void @llvm.lifetime.end.p0(i64 8, ptr %7) #10
  call void @llvm.lifetime.end.p0(i64 8, ptr %6) #10
  call void @llvm.lifetime.end.p0(i64 8, ptr %5) #10
  ret ptr %105
}