; Function Attrs: nounwind uwtable
define ptr @Fra_OneHotCreateExdc(ptr noundef readonly captures(none) %0, ptr noundef readonly captures(none) %1) local_unnamed_addr #2 {
  %3 = getelementptr i8, ptr %1, i64 4
  %.val39 = load i32, ptr %3, align 4, !tbaa !33
  %4 = sdiv i32 %.val39, 2
  %5 = tail call ptr @Aig_ManStart(i32 noundef %4) #19
  %6 = getelementptr inbounds nuw i8, ptr %0, i64 8
  %7 = load ptr, ptr %6, align 8, !tbaa !62
  %8 = getelementptr inbounds nuw i8, ptr %7, i64 16
  %9 = load ptr, ptr %8, align 8, !tbaa !37
  %10 = getelementptr i8, ptr %9, i64 4
  %.val3645 = load i32, ptr %10, align 4, !tbaa !38
  %11 = icmp sgt i32 %.val3645, 0
  br i1 %11, label %.lr.ph, label %.critedge

.lr.ph:                                           ; preds = %2, %.lr.ph
  %.046 = phi i32 [ %13, %.lr.ph ], [ 0, %2 ]
  %12 = tail call ptr @Aig_ObjCreateCi(ptr noundef %5) #19
  %13 = add nuw nsw i32 %.046, 1
  %14 = load ptr, ptr %6, align 8, !tbaa !62
  %15 = getelementptr inbounds nuw i8, ptr %14, i64 16
  %16 = load ptr, ptr %15, align 8, !tbaa !37
  %17 = getelementptr i8, ptr %16, i64 4
  %.val36 = load i32, ptr %17, align 4, !tbaa !38
  %18 = icmp slt i32 %13, %.val36
  br i1 %18, label %.lr.ph, label %.critedge, !llvm.loop !82

.critedge:                                        ; preds = %.lr.ph, %2
  %.lcssa = phi ptr [ %7, %2 ], [ %14, %.lr.ph ]
  %19 = getelementptr i8, ptr %.lcssa, i64 136
  %.val = load i32, ptr %19, align 8, !tbaa !16
  %20 = getelementptr i8, ptr %.lcssa, i64 104
  %.val35 = load i32, ptr %20, align 8, !tbaa !22
  %21 = sub nsw i32 %.val, %.val35
  %.val3847 = load i32, ptr %3, align 4, !tbaa !33
  %22 = icmp sgt i32 %.val3847, 0
  br i1 %22, label %.lr.ph49, label %._crit_edge

.lr.ph49:                                         ; preds = %.critedge
  %23 = getelementptr i8, ptr %1, i64 8
  %24 = getelementptr i8, ptr %5, i64 16
  br label %25

25:                                               ; preds = %.lr.ph49, %61
  %.val3852 = phi i32 [ %.val3847, %.lr.ph49 ], [ %.val38, %61 ]
  %indvars.iv = phi i64 [ 0, %.lr.ph49 ], [ %indvars.iv.next, %61 ]
  %.val41 = load ptr, ptr %23, align 8, !tbaa !36
  %26 = getelementptr inbounds nuw i32, ptr %.val41, i64 %indvars.iv
  %27 = load i32, ptr %26, align 4, !tbaa !16
  %28 = or disjoint i64 %indvars.iv, 1
  %29 = getelementptr inbounds nuw i32, ptr %.val41, i64 %28
  %30 = load i32, ptr %29, align 4, !tbaa !16
  %31 = icmp eq i32 %27, 0
  %32 = icmp eq i32 %30, 0
  %or.cond = select i1 %31, i1 %32, i1 false
  br i1 %or.cond, label %61, label %33

33:                                               ; preds = %25
  %34 = icmp sgt i32 %27, 0
  %35 = add nsw i32 %27, -1
  %36 = xor i32 %27, -1
  %37 = select i1 %34, i32 %35, i32 %36
  %38 = add nsw i32 %37, %21
  %.val43 = load ptr, ptr %24, align 8, !tbaa !37
  %39 = getelementptr i8, ptr %.val43, i64 8
  %.val43.val = load ptr, ptr %39, align 8, !tbaa !40
  %40 = sext i32 %38 to i64
  %41 = getelementptr inbounds ptr, ptr %.val43.val, i64 %40
  %42 = load ptr, ptr %41, align 8, !tbaa !41
  %43 = icmp sgt i32 %30, 0
  %44 = add nsw i32 %30, -1
  %45 = xor i32 %30, -1
  %46 = select i1 %43, i32 %44, i32 %45
  %47 = add nsw i32 %46, %21
  %48 = sext i32 %47 to i64
  %49 = getelementptr inbounds ptr, ptr %.val43.val, i64 %48
  %50 = load ptr, ptr %49, align 8, !tbaa !41
  %.lobit.i = lshr i32 %27, 31
  %51 = ptrtoint ptr %42 to i64
  %52 = zext nneg i32 %.lobit.i to i64
  %53 = xor i64 %51, %52
  %54 = inttoptr i64 %53 to ptr
  %.lobit.i44 = lshr i32 %30, 31
  %55 = ptrtoint ptr %50 to i64
  %56 = zext nneg i32 %.lobit.i44 to i64
  %57 = xor i64 %55, %56
  %58 = inttoptr i64 %57 to ptr
  %59 = tail call ptr @Aig_Or(ptr noundef %5, ptr noundef %54, ptr noundef %58) #19
  %60 = tail call ptr @Aig_ObjCreateCo(ptr noundef %5, ptr noundef %59) #19
  %.val38.pre = load i32, ptr %3, align 4, !tbaa !33
  br label %61

61:                                               ; preds = %25, %33
  %.val38 = phi i32 [ %.val3852, %25 ], [ %.val38.pre, %33 ]
  %indvars.iv.next = add nuw nsw i64 %indvars.iv, 2
  %62 = trunc nuw i64 %indvars.iv.next to i32
  %63 = icmp sgt i32 %.val38, %62
  br i1 %63, label %25, label %._crit_edge, !llvm.loop !83

._crit_edge:                                      ; preds = %61, %.critedge
  %64 = tail call i32 @Aig_ManCleanup(ptr noundef %5) #19
  ret ptr %5
}